(lp0
(cnumpy.core.multiarray
_reconstruct
p1
(cnumpy
ndarray
p2
(I0
tp3
S'b'
p4
tp5
Rp6
(I1
(I3
I1
tp7
cnumpy
dtype
p8
(S'u1'
p9
I0
I1
tp10
Rp11
(I3
S'|'
p12
NNNI-1
I-1
I0
tp13
bI00
S'G\xa8\x19'
p14
tp15
bg1
(g2
(I0
tp16
g4
tp17
Rp18
(I1
(I3
I1
tp19
g11
I00
S"Q\xb6'"
p20
tp21
btp22
a(g1
(g2
(I0
tp23
g4
tp24
Rp25
(I1
(I3
I1
tp26
g11
I00
S'B\x9c\x12'
p27
tp28
bg1
(g2
(I0
tp29
g4
tp30
Rp31
(I1
(I3
I1
tp32
g11
I00
S'L\xaa '
p33
tp34
btp35
a(g1
(g2
(I0
tp36
g4
tp37
Rp38
(I1
(I3
I1
tp39
g11
I00
S'H\xaa\x10'
p40
tp41
bg1
(g2
(I0
tp42
g4
tp43
Rp44
(I1
(I3
I1
tp45
g11
I00
S'R\xb8\x1e'
p46
tp47
btp48
a(g1
(g2
(I0
tp49
g4
tp50
Rp51
(I1
(I3
I1
tp52
g11
I00
S'F\x84\x1a'
p53
tp54
bg1
(g2
(I0
tp55
g4
tp56
Rp57
(I1
(I3
I1
tp58
g11
I00
S'P\x92('
p59
tp60
btp61
a(g1
(g2
(I0
tp62
g4
tp63
Rp64
(I1
(I3
I1
tp65
g11
I00
S'I\x97\x16'
p66
tp67
bg1
(g2
(I0
tp68
g4
tp69
Rp70
(I1
(I3
I1
tp71
g11
I00
S'S\xa5$'
p72
tp73
btp74
a(g1
(g2
(I0
tp75
g4
tp76
Rp77
(I1
(I3
I1
tp78
g11
I00
S'G\xac\x14'
p79
tp80
bg1
(g2
(I0
tp81
g4
tp82
Rp83
(I1
(I3
I1
tp84
g11
I00
S'Q\xba"'
p85
tp86
btp87
a(g1
(g2
(I0
tp88
g4
tp89
Rp90
(I1
(I3
I1
tp91
g11
I00
S'G\xa6\x12'
p92
tp93
bg1
(g2
(I0
tp94
g4
tp95
Rp96
(I1
(I3
I1
tp97
g11
I00
S'Q\xb4 '
p98
tp99
btp100
a(g1
(g2
(I0
tp101
g4
tp102
Rp103
(I1
(I3
I1
tp104
g11
I00
S'G}\x16'
p105
tp106
bg1
(g2
(I0
tp107
g4
tp108
Rp109
(I1
(I3
I1
tp110
g11
I00
S'Q\x8b$'
p111
tp112
btp113
a(g1
(g2
(I0
tp114
g4
tp115
Rp116
(I1
(I3
I1
tp117
g11
I00
S'B\x8b1'
p118
tp119
bg1
(g2
(I0
tp120
g4
tp121
Rp122
(I1
(I3
I1
tp123
g11
I00
S'L\x99?'
p124
tp125
btp126
a(g1
(g2
(I0
tp127
g4
tp128
Rp129
(I1
(I3
I1
tp130
g11
I00
S'E\x8c-'
p131
tp132
bg1
(g2
(I0
tp133
g4
tp134
Rp135
(I1
(I3
I1
tp136
g11
I00
S'O\x9a;'
p137
tp138
btp139
a(g1
(g2
(I0
tp140
g4
tp141
Rp142
(I1
(I3
I1
tp143
g11
I00
S'D\x84;'
p144
tp145
bg1
(g2
(I0
tp146
g4
tp147
Rp148
(I1
(I3
I1
tp149
g11
I00
S'N\x92I'
p150
tp151
btp152
a(g1
(g2
(I0
tp153
g4
tp154
Rp155
(I1
(I3
I1
tp156
g11
I00
S'D~@'
p157
tp158
bg1
(g2
(I0
tp159
g4
tp160
Rp161
(I1
(I3
I1
tp162
g11
I00
S'N\x8cN'
p163
tp164
btp165
a(g1
(g2
(I0
tp166
g4
tp167
Rp168
(I1
(I3
I1
tp169
g11
I00
S'CpB'
p170
tp171
bg1
(g2
(I0
tp172
g4
tp173
Rp174
(I1
(I3
I1
tp175
g11
I00
S'M~P'
p176
tp177
btp178
a(g1
(g2
(I0
tp179
g4
tp180
Rp181
(I1
(I3
I1
tp182
g11
I00
S'Cu?'
p183
tp184
bg1
(g2
(I0
tp185
g4
tp186
Rp187
(I1
(I3
I1
tp188
g11
I00
S'M\x83M'
p189
tp190
btp191
a(g1
(g2
(I0
tp192
g4
tp193
Rp194
(I1
(I3
I1
tp195
g11
I00
S'HIY'
p196
tp197
bg1
(g2
(I0
tp198
g4
tp199
Rp200
(I1
(I3
I1
tp201
g11
I00
S'RWg'
p202
tp203
btp204
a(g1
(g2
(I0
tp205
g4
tp206
Rp207
(I1
(I3
I1
tp208
g11
I00
S'ICd'
p209
tp210
bg1
(g2
(I0
tp211
g4
tp212
Rp213
(I1
(I3
I1
tp214
g11
I00
S'SQr'
p215
tp216
btp217
a(g1
(g2
(I0
tp218
g4
tp219
Rp220
(I1
(I3
I1
tp221
g11
I00
S'L4w'
p222
tp223
bg1
(g2
(I0
tp224
g4
tp225
Rp226
(I1
(I3
I1
tp227
g11
I00
S'VB\x85'
p228
tp229
btp230
a(g1
(g2
(I0
tp231
g4
tp232
Rp233
(I1
(I3
I1
tp234
g11
I00
S'I?f'
p235
tp236
bg1
(g2
(I0
tp237
g4
tp238
Rp239
(I1
(I3
I1
tp240
g11
I00
S'SMt'
p241
tp242
btp243
a(g1
(g2
(I0
tp244
g4
tp245
Rp246
(I1
(I3
I1
tp247
g11
I00
S'K<l'
p248
tp249
bg1
(g2
(I0
tp250
g4
tp251
Rp252
(I1
(I3
I1
tp253
g11
I00
S'UJz'
p254
tp255
btp256
a(g1
(g2
(I0
tp257
g4
tp258
Rp259
(I1
(I3
I1
tp260
g11
I00
S'L%\x85'
p261
tp262
bg1
(g2
(I0
tp263
g4
tp264
Rp265
(I1
(I3
I1
tp266
g11
I00
S'V3\x93'
p267
tp268
btp269
a(g1
(g2
(I0
tp270
g4
tp271
Rp272
(I1
(I3
I1
tp273
g11
I00
S'I=i'
p274
tp275
bg1
(g2
(I0
tp276
g4
tp277
Rp278
(I1
(I3
I1
tp279
g11
I00
S'SKw'
p280
tp281
btp282
a(g1
(g2
(I0
tp283
g4
tp284
Rp285
(I1
(I3
I1
tp286
g11
I00
S'F[O'
p287
tp288
bg1
(g2
(I0
tp289
g4
tp290
Rp291
(I1
(I3
I1
tp292
g11
I00
S'Pi]'
p293
tp294
btp295
a(g1
(g2
(I0
tp296
g4
tp297
Rp298
(I1
(I3
I1
tp299
g11
I00
S'FkG'
p300
tp301
bg1
(g2
(I0
tp302
g4
tp303
Rp304
(I1
(I3
I1
tp305
g11
I00
S'PyU'
p306
tp307
btp308
a(g1
(g2
(I0
tp309
g4
tp310
Rp311
(I1
(I3
I1
tp312
g11
I00
S'HMT'
p313
tp314
bg1
(g2
(I0
tp315
g4
tp316
Rp317
(I1
(I3
I1
tp318
g11
I00
S'R[b'
p319
tp320
btp321
a(g1
(g2
(I0
tp322
g4
tp323
Rp324
(I1
(I3
I1
tp325
g11
I00
S'D\x863'
p326
tp327
bg1
(g2
(I0
tp328
g4
tp329
Rp330
(I1
(I3
I1
tp331
g11
I00
S'N\x94A'
p332
tp333
btp334
a(g1
(g2
(I0
tp335
g4
tp336
Rp337
(I1
(I3
I1
tp338
g11
I00
S'C\x89.'
p339
tp340
bg1
(g2
(I0
tp341
g4
tp342
Rp343
(I1
(I3
I1
tp344
g11
I00
S'M\x97<'
p345
tp346
btp347
a(g1
(g2
(I0
tp348
g4
tp349
Rp350
(I1
(I3
I1
tp351
g11
I00
S'A\x85,'
p352
tp353
bg1
(g2
(I0
tp354
g4
tp355
Rp356
(I1
(I3
I1
tp357
g11
I00
S'K\x93:'
p358
tp359
btp360
a(g1
(g2
(I0
tp361
g4
tp362
Rp363
(I1
(I3
I1
tp364
g11
I00
S'D\x8e)'
p365
tp366
bg1
(g2
(I0
tp367
g4
tp368
Rp369
(I1
(I3
I1
tp370
g11
I00
S'N\x9c7'
p371
tp372
btp373
a(g1
(g2
(I0
tp374
g4
tp375
Rp376
(I1
(I3
I1
tp377
g11
I00
S"C\x8f'"
p378
tp379
bg1
(g2
(I0
tp380
g4
tp381
Rp382
(I1
(I3
I1
tp383
g11
I00
S'M\x9d5'
p384
tp385
btp386
a(g1
(g2
(I0
tp387
g4
tp388
Rp389
(I1
(I3
I1
tp390
g11
I00
S'C\x92+'
p391
tp392
bg1
(g2
(I0
tp393
g4
tp394
Rp395
(I1
(I3
I1
tp396
g11
I00
S'M\xa09'
p397
tp398
btp399
a(g1
(g2
(I0
tp400
g4
tp401
Rp402
(I1
(I3
I1
tp403
g11
I00
S'B\x8d+'
p404
tp405
bg1
(g2
(I0
tp406
g4
tp407
Rp408
(I1
(I3
I1
tp409
g11
I00
S'L\x9b9'
p410
tp411
btp412
a(g1
(g2
(I0
tp413
g4
tp414
Rp415
(I1
(I3
I1
tp416
g11
I00
S'B\x8b/'
p417
tp418
bg1
(g2
(I0
tp419
g4
tp420
Rp421
(I1
(I3
I1
tp422
g11
I00
S'L\x99='
p423
tp424
btp425
a(g1
(g2
(I0
tp426
g4
tp427
Rp428
(I1
(I3
I1
tp429
g11
I00
S'C\x838'
p430
tp431
bg1
(g2
(I0
tp432
g4
tp433
Rp434
(I1
(I3
I1
tp435
g11
I00
S'M\x91F'
p436
tp437
btp438
a(g1
(g2
(I0
tp439
g4
tp440
Rp441
(I1
(I3
I1
tp442
g11
I00
S'D\x84;'
p443
tp444
bg1
(g2
(I0
tp445
g4
tp446
Rp447
(I1
(I3
I1
tp448
g11
I00
S'N\x92I'
p449
tp450
btp451
a(g1
(g2
(I0
tp452
g4
tp453
Rp454
(I1
(I3
I1
tp455
g11
I00
S'FK]'
p456
tp457
bg1
(g2
(I0
tp458
g4
tp459
Rp460
(I1
(I3
I1
tp461
g11
I00
S'PYk'
p462
tp463
btp464
a(g1
(g2
(I0
tp465
g4
tp466
Rp467
(I1
(I3
I1
tp468
g11
I00
S'GPW'
p469
tp470
bg1
(g2
(I0
tp471
g4
tp472
Rp473
(I1
(I3
I1
tp474
g11
I00
S'Q^e'
p475
tp476
btp477
a(g1
(g2
(I0
tp478
g4
tp479
Rp480
(I1
(I3
I1
tp481
g11
I00
S'DgH'
p482
tp483
bg1
(g2
(I0
tp484
g4
tp485
Rp486
(I1
(I3
I1
tp487
g11
I00
S'NuV'
p488
tp489
btp490
a(g1
(g2
(I0
tp491
g4
tp492
Rp493
(I1
(I3
I1
tp494
g11
I00
S'E\xa8\t'
p495
tp496
bg1
(g2
(I0
tp497
g4
tp498
Rp499
(I1
(I3
I1
tp500
g11
I00
S'O\xb6\x17'
p501
tp502
btp503
a(g1
(g2
(I0
tp504
g4
tp505
Rp506
(I1
(I3
I1
tp507
g11
I00
S'F\xad\n'
p508
tp509
bg1
(g2
(I0
tp510
g4
tp511
Rp512
(I1
(I3
I1
tp513
g11
I00
S'P\xbb\x18'
p514
tp515
btp516
a(g1
(g2
(I0
tp517
g4
tp518
Rp519
(I1
(I3
I1
tp520
g11
I00
S'E\x9f\r'
p521
tp522
bg1
(g2
(I0
tp523
g4
tp524
Rp525
(I1
(I3
I1
tp526
g11
I00
S'O\xad\x1b'
p527
tp528
btp529
a(g1
(g2
(I0
tp530
g4
tp531
Rp532
(I1
(I3
I1
tp533
g11
I00
S'F\xac\r'
p534
tp535
bg1
(g2
(I0
tp536
g4
tp537
Rp538
(I1
(I3
I1
tp539
g11
I00
S'P\xba\x1b'
p540
tp541
btp542
a(g1
(g2
(I0
tp543
g4
tp544
Rp545
(I1
(I3
I1
tp546
g11
I00
S'E\x83\x11'
p547
tp548
bg1
(g2
(I0
tp549
g4
tp550
Rp551
(I1
(I3
I1
tp552
g11
I00
S'O\x91\x1f'
p553
tp554
btp555
a(g1
(g2
(I0
tp556
g4
tp557
Rp558
(I1
(I3
I1
tp559
g11
I00
S'K\xaa\x06'
p560
tp561
bg1
(g2
(I0
tp562
g4
tp563
Rp564
(I1
(I3
I1
tp565
g11
I00
S'U\xb8\x14'
p566
tp567
btp568
a(g1
(g2
(I0
tp569
g4
tp570
Rp571
(I1
(I3
I1
tp572
g11
I00
S'H\x9b\x04'
p573
tp574
bg1
(g2
(I0
tp575
g4
tp576
Rp577
(I1
(I3
I1
tp578
g11
I00
S'R\xa9\x12'
p579
tp580
btp581
a(g1
(g2
(I0
tp582
g4
tp583
Rp584
(I1
(I3
I1
tp585
g11
I00
S'F\x92\x17'
p586
tp587
bg1
(g2
(I0
tp588
g4
tp589
Rp590
(I1
(I3
I1
tp591
g11
I00
S'P\xa0%'
p592
tp593
btp594
a(g1
(g2
(I0
tp595
g4
tp596
Rp597
(I1
(I3
I1
tp598
g11
I00
S'G\x9b\x17'
p599
tp600
bg1
(g2
(I0
tp601
g4
tp602
Rp603
(I1
(I3
I1
tp604
g11
I00
S'Q\xa9%'
p605
tp606
btp607
a(g1
(g2
(I0
tp608
g4
tp609
Rp610
(I1
(I3
I1
tp611
g11
I00
S'E\x94\x15'
p612
tp613
bg1
(g2
(I0
tp614
g4
tp615
Rp616
(I1
(I3
I1
tp617
g11
I00
S'O\xa2#'
p618
tp619
btp620
a(g1
(g2
(I0
tp621
g4
tp622
Rp623
(I1
(I3
I1
tp624
g11
I00
S'C|\x1a'
p625
tp626
bg1
(g2
(I0
tp627
g4
tp628
Rp629
(I1
(I3
I1
tp630
g11
I00
S'M\x8a('
p631
tp632
btp633
a(g1
(g2
(I0
tp634
g4
tp635
Rp636
(I1
(I3
I1
tp637
g11
I00
S'F}\x18'
p638
tp639
bg1
(g2
(I0
tp640
g4
tp641
Rp642
(I1
(I3
I1
tp643
g11
I00
S'P\x8b&'
p644
tp645
btp646
a(g1
(g2
(I0
tp647
g4
tp648
Rp649
(I1
(I3
I1
tp650
g11
I00
S'Am\x1a'
p651
tp652
bg1
(g2
(I0
tp653
g4
tp654
Rp655
(I1
(I3
I1
tp656
g11
I00
S'K{('
p657
tp658
btp659
a(g1
(g2
(I0
tp660
g4
tp661
Rp662
(I1
(I3
I1
tp663
g11
I00
S'CP\x1f'
p664
tp665
bg1
(g2
(I0
tp666
g4
tp667
Rp668
(I1
(I3
I1
tp669
g11
I00
S'M^-'
p670
tp671
btp672
a(g1
(g2
(I0
tp673
g4
tp674
Rp675
(I1
(I3
I1
tp676
g11
I00
S'Fu\x1a'
p677
tp678
bg1
(g2
(I0
tp679
g4
tp680
Rp681
(I1
(I3
I1
tp682
g11
I00
S'P\x83('
p683
tp684
btp685
a(g1
(g2
(I0
tp686
g4
tp687
Rp688
(I1
(I3
I1
tp689
g11
I00
S'Fu\x1a'
p690
tp691
bg1
(g2
(I0
tp692
g4
tp693
Rp694
(I1
(I3
I1
tp695
g11
I00
S'P\x83('
p696
tp697
btp698
a(g1
(g2
(I0
tp699
g4
tp700
Rp701
(I1
(I3
I1
tp702
g11
I00
S'K\xb8\r'
p703
tp704
bg1
(g2
(I0
tp705
g4
tp706
Rp707
(I1
(I3
I1
tp708
g11
I00
S'U\xc6\x1b'
p709
tp710
btp711
a(g1
(g2
(I0
tp712
g4
tp713
Rp714
(I1
(I3
I1
tp715
g11
I00
S'G\xaf\x0e'
p716
tp717
bg1
(g2
(I0
tp718
g4
tp719
Rp720
(I1
(I3
I1
tp721
g11
I00
S'Q\xbd\x1c'
p722
tp723
btp724
a(g1
(g2
(I0
tp725
g4
tp726
Rp727
(I1
(I3
I1
tp728
g11
I00
S'H\xc5\r'
p729
tp730
bg1
(g2
(I0
tp731
g4
tp732
Rp733
(I1
(I3
I1
tp734
g11
I00
S'R\xd3\x1b'
p735
tp736
btp737
a(g1
(g2
(I0
tp738
g4
tp739
Rp740
(I1
(I3
I1
tp741
g11
I00
S'F\xac\r'
p742
tp743
bg1
(g2
(I0
tp744
g4
tp745
Rp746
(I1
(I3
I1
tp747
g11
I00
S'P\xba\x1b'
p748
tp749
btp750
a(g1
(g2
(I0
tp751
g4
tp752
Rp753
(I1
(I3
I1
tp754
g11
I00
S'H\xa3\x0e'
p755
tp756
bg1
(g2
(I0
tp757
g4
tp758
Rp759
(I1
(I3
I1
tp760
g11
I00
S'R\xb1\x1c'
p761
tp762
btp763
a(g1
(g2
(I0
tp764
g4
tp765
Rp766
(I1
(I3
I1
tp767
g11
I00
S'G\x82\x15'
p768
tp769
bg1
(g2
(I0
tp770
g4
tp771
Rp772
(I1
(I3
I1
tp773
g11
I00
S'Q\x90#'
p774
tp775
btp776
a(g1
(g2
(I0
tp777
g4
tp778
Rp779
(I1
(I3
I1
tp780
g11
I00
S'Ij\x1b'
p781
tp782
bg1
(g2
(I0
tp783
g4
tp784
Rp785
(I1
(I3
I1
tp786
g11
I00
S'Sx)'
p787
tp788
btp789
a(g1
(g2
(I0
tp790
g4
tp791
Rp792
(I1
(I3
I1
tp793
g11
I00
S'I\x92\x12'
p794
tp795
bg1
(g2
(I0
tp796
g4
tp797
Rp798
(I1
(I3
I1
tp799
g11
I00
S'S\xa0 '
p800
tp801
btp802
a(g1
(g2
(I0
tp803
g4
tp804
Rp805
(I1
(I3
I1
tp806
g11
I00
S'JN)'
p807
tp808
bg1
(g2
(I0
tp809
g4
tp810
Rp811
(I1
(I3
I1
tp812
g11
I00
S'T\\7'
p813
tp814
btp815
a(g1
(g2
(I0
tp816
g4
tp817
Rp818
(I1
(I3
I1
tp819
g11
I00
S'I\x98\x11'
p820
tp821
bg1
(g2
(I0
tp822
g4
tp823
Rp824
(I1
(I3
I1
tp825
g11
I00
S'S\xa6\x1f'
p826
tp827
btp828
a(g1
(g2
(I0
tp829
g4
tp830
Rp831
(I1
(I3
I1
tp832
g11
I00
S'Go\x15'
p833
tp834
bg1
(g2
(I0
tp835
g4
tp836
Rp837
(I1
(I3
I1
tp838
g11
I00
S'Q}#'
p839
tp840
btp841
a(g1
(g2
(I0
tp842
g4
tp843
Rp844
(I1
(I3
I1
tp845
g11
I00
S'J\xaa\x10'
p846
tp847
bg1
(g2
(I0
tp848
g4
tp849
Rp850
(I1
(I3
I1
tp851
g11
I00
S'T\xb8\x1e'
p852
tp853
btp854
a(g1
(g2
(I0
tp855
g4
tp856
Rp857
(I1
(I3
I1
tp858
g11
I00
S'J\xb2\x0f'
p859
tp860
bg1
(g2
(I0
tp861
g4
tp862
Rp863
(I1
(I3
I1
tp864
g11
I00
S'T\xc0\x1d'
p865
tp866
btp867
a(g1
(g2
(I0
tp868
g4
tp869
Rp870
(I1
(I3
I1
tp871
g11
I00
S'L\x9b\x0f'
p872
tp873
bg1
(g2
(I0
tp874
g4
tp875
Rp876
(I1
(I3
I1
tp877
g11
I00
S'V\xa9\x1d'
p878
tp879
btp880
a(g1
(g2
(I0
tp881
g4
tp882
Rp883
(I1
(I3
I1
tp884
g11
I00
S'J\xae\x11'
p885
tp886
bg1
(g2
(I0
tp887
g4
tp888
Rp889
(I1
(I3
I1
tp890
g11
I00
S'T\xbc\x1f'
p891
tp892
btp893
a(g1
(g2
(I0
tp894
g4
tp895
Rp896
(I1
(I3
I1
tp897
g11
I00
S'I\xb5\x10'
p898
tp899
bg1
(g2
(I0
tp900
g4
tp901
Rp902
(I1
(I3
I1
tp903
g11
I00
S'S\xc3\x1e'
p904
tp905
btp906
a(g1
(g2
(I0
tp907
g4
tp908
Rp909
(I1
(I3
I1
tp910
g11
I00
S'EU9'
p911
tp912
bg1
(g2
(I0
tp913
g4
tp914
Rp915
(I1
(I3
I1
tp916
g11
I00
S'OcG'
p917
tp918
btp919
a(g1
(g2
(I0
tp920
g4
tp921
Rp922
(I1
(I3
I1
tp923
g11
I00
S"E\x89'"
p924
tp925
bg1
(g2
(I0
tp926
g4
tp927
Rp928
(I1
(I3
I1
tp929
g11
I00
S'O\x975'
p930
tp931
btp932
a(g1
(g2
(I0
tp933
g4
tp934
Rp935
(I1
(I3
I1
tp936
g11
I00
S'D~+'
p937
tp938
bg1
(g2
(I0
tp939
g4
tp940
Rp941
(I1
(I3
I1
tp942
g11
I00
S'N\x8c9'
p943
tp944
btp945
a(g1
(g2
(I0
tp946
g4
tp947
Rp948
(I1
(I3
I1
tp949
g11
I00
S'Dl.'
p950
tp951
bg1
(g2
(I0
tp952
g4
tp953
Rp954
(I1
(I3
I1
tp955
g11
I00
S'Nz<'
p956
tp957
btp958
a(g1
(g2
(I0
tp959
g4
tp960
Rp961
(I1
(I3
I1
tp962
g11
I00
S'C\x83)'
p963
tp964
bg1
(g2
(I0
tp965
g4
tp966
Rp967
(I1
(I3
I1
tp968
g11
I00
S'M\x917'
p969
tp970
btp971
a(g1
(g2
(I0
tp972
g4
tp973
Rp974
(I1
(I3
I1
tp975
g11
I00
S'B{('
p976
tp977
bg1
(g2
(I0
tp978
g4
tp979
Rp980
(I1
(I3
I1
tp981
g11
I00
S'L\x896'
p982
tp983
btp984
a(g1
(g2
(I0
tp985
g4
tp986
Rp987
(I1
(I3
I1
tp988
g11
I00
S'Ab,'
p989
tp990
bg1
(g2
(I0
tp991
g4
tp992
Rp993
(I1
(I3
I1
tp994
g11
I00
S'Kp:'
p995
tp996
btp997
a(g1
(g2
(I0
tp998
g4
tp999
Rp1000
(I1
(I3
I1
tp1001
g11
I00
S'B\x8d+'
p1002
tp1003
bg1
(g2
(I0
tp1004
g4
tp1005
Rp1006
(I1
(I3
I1
tp1007
g11
I00
S'L\x9b9'
p1008
tp1009
btp1010
a(g1
(g2
(I0
tp1011
g4
tp1012
Rp1013
(I1
(I3
I1
tp1014
g11
I00
S'D\x87-'
p1015
tp1016
bg1
(g2
(I0
tp1017
g4
tp1018
Rp1019
(I1
(I3
I1
tp1020
g11
I00
S'N\x95;'
p1021
tp1022
btp1023
a(g1
(g2
(I0
tp1024
g4
tp1025
Rp1026
(I1
(I3
I1
tp1027
g11
I00
S'E\x82-'
p1028
tp1029
bg1
(g2
(I0
tp1030
g4
tp1031
Rp1032
(I1
(I3
I1
tp1033
g11
I00
S'O\x90;'
p1034
tp1035
btp1036
a(g1
(g2
(I0
tp1037
g4
tp1038
Rp1039
(I1
(I3
I1
tp1040
g11
I00
S'C}/'
p1041
tp1042
bg1
(g2
(I0
tp1043
g4
tp1044
Rp1045
(I1
(I3
I1
tp1046
g11
I00
S'M\x8b='
p1047
tp1048
btp1049
a(g1
(g2
(I0
tp1050
g4
tp1051
Rp1052
(I1
(I3
I1
tp1053
g11
I00
S'C\x8a,'
p1054
tp1055
bg1
(g2
(I0
tp1056
g4
tp1057
Rp1058
(I1
(I3
I1
tp1059
g11
I00
S'M\x98:'
p1060
tp1061
btp1062
a(g1
(g2
(I0
tp1063
g4
tp1064
Rp1065
(I1
(I3
I1
tp1066
g11
I00
S'C\x88)'
p1067
tp1068
bg1
(g2
(I0
tp1069
g4
tp1070
Rp1071
(I1
(I3
I1
tp1072
g11
I00
S'M\x967'
p1073
tp1074
btp1075
a(g1
(g2
(I0
tp1076
g4
tp1077
Rp1078
(I1
(I3
I1
tp1079
g11
I00
S"D\x8f'"
p1080
tp1081
bg1
(g2
(I0
tp1082
g4
tp1083
Rp1084
(I1
(I3
I1
tp1085
g11
I00
S'N\x9d5'
p1086
tp1087
btp1088
a(g1
(g2
(I0
tp1089
g4
tp1090
Rp1091
(I1
(I3
I1
tp1092
g11
I00
S'C\x80,'
p1093
tp1094
bg1
(g2
(I0
tp1095
g4
tp1096
Rp1097
(I1
(I3
I1
tp1098
g11
I00
S'M\x8e:'
p1099
tp1100
btp1101
a(g1
(g2
(I0
tp1102
g4
tp1103
Rp1104
(I1
(I3
I1
tp1105
g11
I00
S'C\x80*'
p1106
tp1107
bg1
(g2
(I0
tp1108
g4
tp1109
Rp1110
(I1
(I3
I1
tp1111
g11
I00
S'M\x8e8'
p1112
tp1113
btp1114
a(g1
(g2
(I0
tp1115
g4
tp1116
Rp1117
(I1
(I3
I1
tp1118
g11
I00
S'D\x88+'
p1119
tp1120
bg1
(g2
(I0
tp1121
g4
tp1122
Rp1123
(I1
(I3
I1
tp1124
g11
I00
S'N\x969'
p1125
tp1126
btp1127
a(g1
(g2
(I0
tp1128
g4
tp1129
Rp1130
(I1
(I3
I1
tp1131
g11
I00
S'F\xb8\t'
p1132
tp1133
bg1
(g2
(I0
tp1134
g4
tp1135
Rp1136
(I1
(I3
I1
tp1137
g11
I00
S'P\xc6\x17'
p1138
tp1139
btp1140
a(g1
(g2
(I0
tp1141
g4
tp1142
Rp1143
(I1
(I3
I1
tp1144
g11
I00
S'I\xb8\t'
p1145
tp1146
bg1
(g2
(I0
tp1147
g4
tp1148
Rp1149
(I1
(I3
I1
tp1150
g11
I00
S'S\xc6\x17'
p1151
tp1152
btp1153
a(g1
(g2
(I0
tp1154
g4
tp1155
Rp1156
(I1
(I3
I1
tp1157
g11
I00
S'G\xa7\x0c'
p1158
tp1159
bg1
(g2
(I0
tp1160
g4
tp1161
Rp1162
(I1
(I3
I1
tp1163
g11
I00
S'Q\xb5\x1a'
p1164
tp1165
btp1166
a(g1
(g2
(I0
tp1167
g4
tp1168
Rp1169
(I1
(I3
I1
tp1170
g11
I00
S'F\xa3\x0e'
p1171
tp1172
bg1
(g2
(I0
tp1173
g4
tp1174
Rp1175
(I1
(I3
I1
tp1176
g11
I00
S'P\xb1\x1c'
p1177
tp1178
btp1179
a(g1
(g2
(I0
tp1180
g4
tp1181
Rp1182
(I1
(I3
I1
tp1183
g11
I00
S'G\xb8\r'
p1184
tp1185
bg1
(g2
(I0
tp1186
g4
tp1187
Rp1188
(I1
(I3
I1
tp1189
g11
I00
S'Q\xc6\x1b'
p1190
tp1191
btp1192
a(g1
(g2
(I0
tp1193
g4
tp1194
Rp1195
(I1
(I3
I1
tp1196
g11
I00
S'G\xa7\x0c'
p1197
tp1198
bg1
(g2
(I0
tp1199
g4
tp1200
Rp1201
(I1
(I3
I1
tp1202
g11
I00
S'Q\xb5\x1a'
p1203
tp1204
btp1205
a(g1
(g2
(I0
tp1206
g4
tp1207
Rp1208
(I1
(I3
I1
tp1209
g11
I00
S'G\x9f\r'
p1210
tp1211
bg1
(g2
(I0
tp1212
g4
tp1213
Rp1214
(I1
(I3
I1
tp1215
g11
I00
S'Q\xad\x1b'
p1216
tp1217
btp1218
a(g1
(g2
(I0
tp1219
g4
tp1220
Rp1221
(I1
(I3
I1
tp1222
g11
I00
S'K\xb8\r'
p1223
tp1224
bg1
(g2
(I0
tp1225
g4
tp1226
Rp1227
(I1
(I3
I1
tp1228
g11
I00
S'U\xc6\x1b'
p1229
tp1230
btp1231
a(g1
(g2
(I0
tp1232
g4
tp1233
Rp1234
(I1
(I3
I1
tp1235
g11
I00
S'I\xb8\r'
p1236
tp1237
bg1
(g2
(I0
tp1238
g4
tp1239
Rp1240
(I1
(I3
I1
tp1241
g11
I00
S'S\xc6\x1b'
p1242
tp1243
btp1244
a(g1
(g2
(I0
tp1245
g4
tp1246
Rp1247
(I1
(I3
I1
tp1248
g11
I00
S'K\xaf\x0e'
p1249
tp1250
bg1
(g2
(I0
tp1251
g4
tp1252
Rp1253
(I1
(I3
I1
tp1254
g11
I00
S'U\xbd\x1c'
p1255
tp1256
btp1257
a(g1
(g2
(I0
tp1258
g4
tp1259
Rp1260
(I1
(I3
I1
tp1261
g11
I00
S'I\xaf\x0e'
p1262
tp1263
bg1
(g2
(I0
tp1264
g4
tp1265
Rp1266
(I1
(I3
I1
tp1267
g11
I00
S'S\xbd\x1c'
p1268
tp1269
btp1270
a(g1
(g2
(I0
tp1271
g4
tp1272
Rp1273
(I1
(I3
I1
tp1274
g11
I00
S'E\x9f\r'
p1275
tp1276
bg1
(g2
(I0
tp1277
g4
tp1278
Rp1279
(I1
(I3
I1
tp1280
g11
I00
S'O\xad\x1b'
p1281
tp1282
btp1283
a(g1
(g2
(I0
tp1284
g4
tp1285
Rp1286
(I1
(I3
I1
tp1287
g11
I00
S'G\x90\x0f'
p1288
tp1289
bg1
(g2
(I0
tp1290
g4
tp1291
Rp1292
(I1
(I3
I1
tp1293
g11
I00
S'Q\x9e\x1d'
p1294
tp1295
btp1296
a(g1
(g2
(I0
tp1297
g4
tp1298
Rp1299
(I1
(I3
I1
tp1300
g11
I00
S'D\x9e,'
p1301
tp1302
bg1
(g2
(I0
tp1303
g4
tp1304
Rp1305
(I1
(I3
I1
tp1306
g11
I00
S'N\xac:'
p1307
tp1308
btp1309
a(g1
(g2
(I0
tp1310
g4
tp1311
Rp1312
(I1
(I3
I1
tp1313
g11
I00
S'B\x99$'
p1314
tp1315
bg1
(g2
(I0
tp1316
g4
tp1317
Rp1318
(I1
(I3
I1
tp1319
g11
I00
S'L\xa72'
p1320
tp1321
btp1322
a(g1
(g2
(I0
tp1323
g4
tp1324
Rp1325
(I1
(I3
I1
tp1326
g11
I00
S'E\x9c+'
p1327
tp1328
bg1
(g2
(I0
tp1329
g4
tp1330
Rp1331
(I1
(I3
I1
tp1332
g11
I00
S'O\xaa9'
p1333
tp1334
btp1335
a(g1
(g2
(I0
tp1336
g4
tp1337
Rp1338
(I1
(I3
I1
tp1339
g11
I00
S'D\x9c+'
p1340
tp1341
bg1
(g2
(I0
tp1342
g4
tp1343
Rp1344
(I1
(I3
I1
tp1345
g11
I00
S'N\xaa9'
p1346
tp1347
btp1348
a(g1
(g2
(I0
tp1349
g4
tp1350
Rp1351
(I1
(I3
I1
tp1352
g11
I00
S'B\x9e,'
p1353
tp1354
bg1
(g2
(I0
tp1355
g4
tp1356
Rp1357
(I1
(I3
I1
tp1358
g11
I00
S'L\xac:'
p1359
tp1360
btp1361
a(g1
(g2
(I0
tp1362
g4
tp1363
Rp1364
(I1
(I3
I1
tp1365
g11
I00
S'D\x96 '
p1366
tp1367
bg1
(g2
(I0
tp1368
g4
tp1369
Rp1370
(I1
(I3
I1
tp1371
g11
I00
S'N\xa4.'
p1372
tp1373
btp1374
a(g1
(g2
(I0
tp1375
g4
tp1376
Rp1377
(I1
(I3
I1
tp1378
g11
I00
S'B\xa1"'
p1379
tp1380
bg1
(g2
(I0
tp1381
g4
tp1382
Rp1383
(I1
(I3
I1
tp1384
g11
I00
S'L\xaf0'
p1385
tp1386
btp1387
a(g1
(g2
(I0
tp1388
g4
tp1389
Rp1390
(I1
(I3
I1
tp1391
g11
I00
S'C\x917'
p1392
tp1393
bg1
(g2
(I0
tp1394
g4
tp1395
Rp1396
(I1
(I3
I1
tp1397
g11
I00
S'M\x9fE'
p1398
tp1399
btp1400
a(g1
(g2
(I0
tp1401
g4
tp1402
Rp1403
(I1
(I3
I1
tp1404
g11
I00
S'D\x92:'
p1405
tp1406
bg1
(g2
(I0
tp1407
g4
tp1408
Rp1409
(I1
(I3
I1
tp1410
g11
I00
S'N\xa0H'
p1411
tp1412
btp1413
a.